target datalayout = "e-m:e-p270:32:32-p271:32:32-p272:64:64-i64:64-i128:128-f80:128-n8:16:32:64-S128"
target triple = "x86_64-pc-linux-gnu"

%struct.lv_ll_t = type { i32, ptr, ptr }
%struct._lv_group_t = type { %struct.lv_ll_t, ptr, ptr, ptr, ptr, i8 }

; Function Attrs: nounwind uwtable
define ptr @lv_group_get_edge_cb(ptr noundef %0) #0 {
  %2 = alloca ptr, align 8
  %3 = alloca ptr, align 8
  store ptr %0, ptr %3, align 8, !tbaa !3
  %4 = load ptr, ptr %3, align 8, !tbaa !3
  %5 = icmp ne ptr %4, null
  br i1 %5, label %7, label %6

6:                                                ; preds = %1
  store ptr null, ptr %2, align 8
  br label %11

7:                                                ; preds = %1
  %8 = load ptr, ptr %3, align 8, !tbaa !3
  %9 = getelementptr inbounds nuw %struct._lv_group_t, ptr %8, i32 0, i32 3
  %10 = load ptr, ptr %9, align 8, !tbaa !12
  store ptr %10, ptr %2, align 8
  br label %11

11:                                               ; preds = %7, %6
  %12 = load ptr, ptr %2, align 8
  ret ptr %12
}